; Function Attrs: mustprogress uwtable
define void @_ZN32pxrInternal_v0_24__pxrReserved__22HdRenderSettingsSchema7Builder5BuildEv(ptr dead_on_unwind noalias nocapture writable writeonly sret(%"class.std::shared_ptr") align 8 %0, ptr nocapture noundef nonnull readonly align 8 dereferenceable(112) %1) local_unnamed_addr #1 align 2 {
  %3 = getelementptr inbounds nuw i8, ptr %1, i64 16
  %4 = getelementptr inbounds nuw i8, ptr %1, i64 32
  %5 = getelementptr inbounds nuw i8, ptr %1, i64 48
  %6 = getelementptr inbounds nuw i8, ptr %1, i64 64
  %7 = getelementptr inbounds nuw i8, ptr %1, i64 80
  %8 = getelementptr inbounds nuw i8, ptr %1, i64 96
  tail call void @_ZN32pxrInternal_v0_24__pxrReserved__22HdRenderSettingsSchema13BuildRetainedERKSt10shared_ptrINS_21HdContainerDataSourceEERKS1_INS_24HdTypedSampledDataSourceIbEEERKS1_INS_18HdVectorDataSourceEERKS1_INS6_INS_7VtArrayINS_7TfTokenEEEEEESL_RKS1_INS6_ISG_EEERKS1_INS6_INS_7GfVec2dEEEE(ptr dead_on_unwind writable sret(%"class.std::shared_ptr") align 8 %0, ptr noundef nonnull align 8 dereferenceable(16) %1, ptr noundef nonnull align 8 dereferenceable(16) %3, ptr noundef nonnull align 8 dereferenceable(16) %4, ptr noundef nonnull align 8 dereferenceable(16) %5, ptr noundef nonnull align 8 dereferenceable(16) %6, ptr noundef nonnull align 8 dereferenceable(16) %7, ptr noundef nonnull align 8 dereferenceable(16) %8)
  ret void
}